#include <math.h>
#include <stdio.h>
#include <stdlib.h>
#include <string.h>

main()
{
    int a[100][17],i,j,k,s,r;
	for(j=0;j<100;j++)
	{
		r=0;
	    scanf("%d",&a[j][1]);
		if(a[j][1]==-1) break;
		else
		{
			for(i=2,s=1;a[j][i-1]!=0;i++,s++)
				scanf("%d",&a[j][i]);
			for(i=1;i<s;i++)
			{
				for(k=i+1;k<=s;k++) {if(a[j][k]==2*a[j][i]||a[j][i]==2*a[j][k]) r++;}
			}
			printf("%d\n",r);
		}
	}
	return 0;
}